; Function Attrs: mustprogress nofree norecurse nosync nounwind willreturn memory(readwrite, inaccessiblemem: none) uwtable
define void @_ZN12b2MouseJoint9SetTargetERK6b2Vec2(ptr nocapture noundef nonnull align 8 dereferenceable(228) %this, ptr nocapture noundef nonnull readonly align 4 dereferenceable(8) %target) local_unnamed_addr #2 align 2 {
entry:
  %m_targetA = getelementptr inbounds i8, ptr %this, i64 136
  %0 = load float, ptr %target, align 4
  %1 = load float, ptr %m_targetA, align 8
  %cmp.i = fcmp une float %0, %1
  %y.i = getelementptr inbounds i8, ptr %target, i64 4
  %2 = load float, ptr %y.i, align 4
  %y2.i = getelementptr inbounds i8, ptr %this, i64 140
  %3 = load float, ptr %y2.i, align 4
  %cmp3.i = fcmp une float %2, %3
  %4 = select i1 %cmp.i, i1 true, i1 %cmp3.i
  br i1 %4, label %if.then, label %if.end

if.then:                                          ; preds = %entry
  %m_bodyB = getelementptr inbounds i8, ptr %this, i64 104
  %5 = load ptr, ptr %m_bodyB, align 8
  %6 = load i32, ptr %5, align 8
  %cmp.i2 = icmp eq i32 %6, 0
  br i1 %cmp.i2, label %_ZN6b2Body8SetAwakeEb.exit, label %if.end.i

if.end.i:                                         ; preds = %if.then
  %m_flags.i = getelementptr inbounds i8, ptr %5, i64 4
  %7 = load i16, ptr %m_flags.i, align 4
  %m_sleepTime.i = getelementptr inbounds i8, ptr %5, i64 172
  %8 = or i16 %7, 2
  store i16 %8, ptr %m_flags.i, align 4
  store float 0.000000e+00, ptr %m_sleepTime.i, align 4
  br label %_ZN6b2Body8SetAwakeEb.exit

_ZN6b2Body8SetAwakeEb.exit:                       ; preds = %if.then, %if.end.i
  %9 = load i64, ptr %target, align 4
  store i64 %9, ptr %m_targetA, align 8
  br label %if.end

if.end:                                           ; preds = %_ZN6b2Body8SetAwakeEb.exit, %entry
  ret void
}